target datalayout = "e-m:e-p270:32:32-p271:32:32-p272:64:64-i64:64-i128:128-f80:128-n8:16:32:64-S128"
target triple = "x86_64-pc-linux-gnu"

%struct.WOLFSSL_CIPHER = type { i8, i8, ptr }

; Function Attrs: nounwind uwtable
define ptr @wolfSSL_CIPHER_get_name(ptr noundef %0) #0 {
  %2 = alloca ptr, align 8
  %3 = alloca ptr, align 8
  store ptr %0, ptr %3, align 8, !tbaa !279
  br label %4

4:                                                ; preds = %1
  br label %5

5:                                                ; preds = %4
  %6 = load ptr, ptr %3, align 8, !tbaa !279
  %7 = icmp eq ptr %6, null
  br i1 %7, label %8, label %9

8:                                                ; preds = %5
  store ptr null, ptr %2, align 8
  br label %17

9:                                                ; preds = %5
  %10 = load ptr, ptr %3, align 8, !tbaa !279
  %11 = getelementptr inbounds nuw %struct.WOLFSSL_CIPHER, ptr %10, i32 0, i32 0
  %12 = load i8, ptr %11, align 8, !tbaa !281
  %13 = load ptr, ptr %3, align 8, !tbaa !279
  %14 = getelementptr inbounds nuw %struct.WOLFSSL_CIPHER, ptr %13, i32 0, i32 1
  %15 = load i8, ptr %14, align 1, !tbaa !282
  %16 = call ptr @GetCipherNameIana(i8 noundef zeroext %12, i8 noundef zeroext %15)
  store ptr %16, ptr %2, align 8
  br label %17

17:                                               ; preds = %9, %8
  %18 = load ptr, ptr %2, align 8
  ret ptr %18
}