; Function Attrs: nounwind uwtable
define ptr @wolfSSL_CIPHER_get_name(ptr noundef readonly captures(address_is_null) %0) local_unnamed_addr #0 {
  %2 = icmp eq ptr %0, null
  br i1 %2, label %8, label %3

3:                                                ; preds = %1
  %4 = load i8, ptr %0, align 8, !tbaa !251
  %5 = getelementptr inbounds nuw i8, ptr %0, i64 1
  %6 = load i8, ptr %5, align 1, !tbaa !252
  %7 = tail call ptr @GetCipherNameIana(i8 noundef zeroext %4, i8 noundef zeroext %6) #22
  br label %8

8:                                                ; preds = %1, %3
  %.0 = phi ptr [ %7, %3 ], [ null, %1 ]
  ret ptr %.0
}